target datalayout = "e-m:e-p270:32:32-p271:32:32-p272:64:64-i64:64-i128:128-f80:128-n8:16:32:64-S128"
target triple = "x86_64-pc-linux-gnu"

%struct.chunkfile = type { ptr, ptr, i64, i64 }
%struct.chunk_info = type { i32, i64, ptr, ptr }
%struct.hashfile = type { i32, i32, i32, %union.git_hash_ctx, i64, ptr, ptr, i32, i32, i64, ptr, ptr, ptr, i32 }
%union.git_hash_ctx = type { %struct.SHA1_CTX }
%struct.SHA1_CTX = type { i64, [5 x i32], [64 x i8], i32, i32, i32, i32, i32, ptr, [5 x i32], [5 x i32], [80 x i32], [80 x i32], [80 x [5 x i32]] }

@.str = private unnamed_addr constant [15 x i8] c"chunk-format.c\00", align 1
@.str.1 = private unnamed_addr constant [10 x i8] c"chunkfile\00", align 1
@.str.2 = private unnamed_addr constant [6 x i8] c"write\00", align 1
@the_repository = external global ptr, align 8
@.str.3 = private unnamed_addr constant [63 x i8] c"expected to write %ld bytes to chunk %x, but wrote %ld instead\00", align 1

; Function Attrs: inlinehint nounwind uwtable
define internal i64 @default_bswap64(i64 noundef %0) #4 {
  %2 = alloca i64, align 8
  store i64 %0, ptr %2, align 8, !tbaa !19
  %3 = load i64, ptr %2, align 8, !tbaa !19
  %4 = and i64 %3, 255
  %5 = shl i64 %4, 56
  %6 = load i64, ptr %2, align 8, !tbaa !19
  %7 = and i64 %6, 65280
  %8 = shl i64 %7, 40
  %9 = or i64 %5, %8
  %10 = load i64, ptr %2, align 8, !tbaa !19
  %11 = and i64 %10, 16711680
  %12 = shl i64 %11, 24
  %13 = or i64 %9, %12
  %14 = load i64, ptr %2, align 8, !tbaa !19
  %15 = and i64 %14, 4278190080
  %16 = shl i64 %15, 8
  %17 = or i64 %13, %16
  %18 = load i64, ptr %2, align 8, !tbaa !19
  %19 = and i64 %18, 1095216660480
  %20 = lshr i64 %19, 8
  %21 = or i64 %17, %20
  %22 = load i64, ptr %2, align 8, !tbaa !19
  %23 = and i64 %22, 280375465082880
  %24 = lshr i64 %23, 24
  %25 = or i64 %21, %24
  %26 = load i64, ptr %2, align 8, !tbaa !19
  %27 = and i64 %26, 71776119061217280
  %28 = lshr i64 %27, 40
  %29 = or i64 %25, %28
  %30 = load i64, ptr %2, align 8, !tbaa !19
  %31 = and i64 %30, -72057594037927936
  %32 = lshr i64 %31, 56
  %33 = or i64 %29, %32
  ret i64 %33
}

; Function Attrs: inlinehint nounwind uwtable
define internal i32 @default_swab32(i32 noundef %0) #4 {
  %2 = alloca i32, align 4
  store i32 %0, ptr %2, align 4, !tbaa !17
  %3 = load i32, ptr %2, align 4, !tbaa !17
  %4 = and i32 %3, -16777216
  %5 = lshr i32 %4, 24
  %6 = load i32, ptr %2, align 4, !tbaa !17
  %7 = and i32 %6, 16711680
  %8 = lshr i32 %7, 8
  %9 = or i32 %5, %8
  %10 = load i32, ptr %2, align 4, !tbaa !17
  %11 = and i32 %10, 65280
  %12 = shl i32 %11, 8
  %13 = or i32 %9, %12
  %14 = load i32, ptr %2, align 4, !tbaa !17
  %15 = and i32 %14, 255
  %16 = shl i32 %15, 24
  %17 = or i32 %13, %16
  ret i32 %17
}

; Function Attrs: inlinehint nounwind uwtable
define internal i64 @git_bswap64(i64 noundef %0) #4 {
  %2 = alloca i64, align 8
  %3 = alloca i64, align 8
  store i64 %0, ptr %2, align 8, !tbaa !19
  call void @llvm.lifetime.start.p0(i64 8, ptr %3) #7
  %4 = load i64, ptr %2, align 8, !tbaa !19
  %5 = call i1 @llvm.is.constant.i64(i64 %4)
  br i1 %5, label %6, label %9

6:                                                ; preds = %1
  %7 = load i64, ptr %2, align 8, !tbaa !19
  %8 = call i64 @default_bswap64(i64 noundef %7)
  store i64 %8, ptr %3, align 8, !tbaa !19
  br label %12

9:                                                ; preds = %1
  %10 = load i64, ptr %2, align 8, !tbaa !19
  %11 = call i64 asm "bswap ${0:q}", "=r,0,~{dirflag},~{fpsr},~{flags}"(i64 %10) #9, !srcloc !75
  store i64 %11, ptr %3, align 8, !tbaa !19
  br label %12

12:                                               ; preds = %9, %6
  %13 = load i64, ptr %3, align 8, !tbaa !19
  call void @llvm.lifetime.end.p0(i64 8, ptr %3) #7
  ret i64 %13
}

; Function Attrs: inlinehint nounwind uwtable
define internal i32 @git_bswap32(i32 noundef %0) #4 {
  %2 = alloca i32, align 4
  %3 = alloca i32, align 4
  store i32 %0, ptr %2, align 4, !tbaa !17
  call void @llvm.lifetime.start.p0(i64 4, ptr %3) #7
  %4 = load i32, ptr %2, align 4, !tbaa !17
  %5 = call i1 @llvm.is.constant.i32(i32 %4)
  br i1 %5, label %6, label %9

6:                                                ; preds = %1
  %7 = load i32, ptr %2, align 4, !tbaa !17
  %8 = call i32 @default_swab32(i32 noundef %7)
  store i32 %8, ptr %3, align 4, !tbaa !17
  br label %12

9:                                                ; preds = %1
  %10 = load i32, ptr %2, align 4, !tbaa !17
  %11 = call i32 asm "bswap $0", "=r,0,~{dirflag},~{fpsr},~{flags}"(i32 %10) #9, !srcloc !74
  store i32 %11, ptr %3, align 4, !tbaa !17
  br label %12

12:                                               ; preds = %9, %6
  %13 = load i32, ptr %3, align 4, !tbaa !17
  call void @llvm.lifetime.end.p0(i64 4, ptr %3) #7
  ret i32 %13
}

; Function Attrs: inlinehint nounwind uwtable
define internal i64 @hashwrite_be64(ptr noundef %0, i64 noundef %1) #4 {
  %3 = alloca ptr, align 8
  %4 = alloca i64, align 8
  store ptr %0, ptr %3, align 8, !tbaa !4
  store i64 %1, ptr %4, align 8, !tbaa !19
  %5 = load i64, ptr %4, align 8, !tbaa !19
  %6 = call i64 @git_bswap64(i64 noundef %5)
  store i64 %6, ptr %4, align 8, !tbaa !19
  %7 = load ptr, ptr %3, align 8, !tbaa !4
  call void @hashwrite(ptr noundef %7, ptr noundef %4, i32 noundef 8)
  ret i64 8
}

; Function Attrs: inlinehint nounwind uwtable
define internal void @hashwrite_be32(ptr noundef %0, i32 noundef %1) #4 {
  %3 = alloca ptr, align 8
  %4 = alloca i32, align 4
  store ptr %0, ptr %3, align 8, !tbaa !4
  store i32 %1, ptr %4, align 4, !tbaa !17
  %5 = load i32, ptr %4, align 4, !tbaa !17
  %6 = call i32 @git_bswap32(i32 noundef %5)
  store i32 %6, ptr %4, align 4, !tbaa !17
  %7 = load ptr, ptr %3, align 8, !tbaa !4
  call void @hashwrite(ptr noundef %7, ptr noundef %4, i32 noundef 4)
  ret void
}

; Function Attrs: inlinehint nounwind uwtable
define internal i64 @hashfile_total(ptr noundef %0) #4 {
  %2 = alloca ptr, align 8
  store ptr %0, ptr %2, align 8, !tbaa !4
  %3 = load ptr, ptr %2, align 8, !tbaa !4
  %4 = getelementptr inbounds nuw %struct.hashfile, ptr %3, i32 0, i32 4
  %5 = load i64, ptr %4, align 8, !tbaa !31
  %6 = load ptr, ptr %2, align 8, !tbaa !4
  %7 = getelementptr inbounds nuw %struct.hashfile, ptr %6, i32 0, i32 2
  %8 = load i32, ptr %7, align 8, !tbaa !36
  %9 = zext i32 %8 to i64
  %10 = add nsw i64 %5, %9
  ret i64 %10
}

; Function Attrs: nounwind uwtable
define dso_local i32 @write_chunkfile(ptr noundef %0, ptr noundef %1) #0 {
  %3 = alloca i32, align 4
  %4 = alloca ptr, align 8
  %5 = alloca ptr, align 8
  %6 = alloca i32, align 4
  %7 = alloca i32, align 4
  %8 = alloca i64, align 8
  %9 = alloca i64, align 8
  %10 = alloca i32, align 4
  store ptr %0, ptr %4, align 8, !tbaa !9
  store ptr %1, ptr %5, align 8, !tbaa !20
  call void @llvm.lifetime.start.p0(i64 4, ptr %6) #7
  call void @llvm.lifetime.start.p0(i64 4, ptr %7) #7
  store i32 0, ptr %7, align 4, !tbaa !17
  call void @llvm.lifetime.start.p0(i64 8, ptr %8) #7
  %11 = load ptr, ptr %4, align 8, !tbaa !9
  %12 = getelementptr inbounds nuw %struct.chunkfile, ptr %11, i32 0, i32 0
  %13 = load ptr, ptr %12, align 8, !tbaa !11
  %14 = call i64 @hashfile_total(ptr noundef %13)
  store i64 %14, ptr %8, align 8, !tbaa !19
  %15 = load ptr, ptr @the_repository, align 8, !tbaa !26
  call void (ptr, i32, ptr, ptr, ptr, ...) @trace2_region_enter_fl(ptr noundef @.str, i32 noundef 70, ptr noundef @.str.1, ptr noundef @.str.2, ptr noundef %15)
  %16 = load ptr, ptr %4, align 8, !tbaa !9
  %17 = getelementptr inbounds nuw %struct.chunkfile, ptr %16, i32 0, i32 2
  %18 = load i64, ptr %17, align 8, !tbaa !16
  %19 = add i64 %18, 1
  %20 = mul i64 %19, 12
  %21 = load i64, ptr %8, align 8, !tbaa !19
  %22 = add i64 %21, %20
  store i64 %22, ptr %8, align 8, !tbaa !19
  store i32 0, ptr %6, align 4, !tbaa !17
  br label %23

23:                                               ; preds = %57, %2
  %24 = load i32, ptr %6, align 4, !tbaa !17
  %25 = sext i32 %24 to i64
  %26 = load ptr, ptr %4, align 8, !tbaa !9
  %27 = getelementptr inbounds nuw %struct.chunkfile, ptr %26, i32 0, i32 2
  %28 = load i64, ptr %27, align 8, !tbaa !16
  %29 = icmp ult i64 %25, %28
  br i1 %29, label %30, label %60

30:                                               ; preds = %23
  %31 = load ptr, ptr %4, align 8, !tbaa !9
  %32 = getelementptr inbounds nuw %struct.chunkfile, ptr %31, i32 0, i32 0
  %33 = load ptr, ptr %32, align 8, !tbaa !11
  %34 = load ptr, ptr %4, align 8, !tbaa !9
  %35 = getelementptr inbounds nuw %struct.chunkfile, ptr %34, i32 0, i32 1
  %36 = load ptr, ptr %35, align 8, !tbaa !15
  %37 = load i32, ptr %6, align 4, !tbaa !17
  %38 = sext i32 %37 to i64
  %39 = getelementptr inbounds %struct.chunk_info, ptr %36, i64 %38
  %40 = getelementptr inbounds nuw %struct.chunk_info, ptr %39, i32 0, i32 0
  %41 = load i32, ptr %40, align 8, !tbaa !22
  call void @hashwrite_be32(ptr noundef %33, i32 noundef %41)
  %42 = load ptr, ptr %4, align 8, !tbaa !9
  %43 = getelementptr inbounds nuw %struct.chunkfile, ptr %42, i32 0, i32 0
  %44 = load ptr, ptr %43, align 8, !tbaa !11
  %45 = load i64, ptr %8, align 8, !tbaa !19
  %46 = call i64 @hashwrite_be64(ptr noundef %44, i64 noundef %45)
  %47 = load ptr, ptr %4, align 8, !tbaa !9
  %48 = getelementptr inbounds nuw %struct.chunkfile, ptr %47, i32 0, i32 1
  %49 = load ptr, ptr %48, align 8, !tbaa !15
  %50 = load i32, ptr %6, align 4, !tbaa !17
  %51 = sext i32 %50 to i64
  %52 = getelementptr inbounds %struct.chunk_info, ptr %49, i64 %51
  %53 = getelementptr inbounds nuw %struct.chunk_info, ptr %52, i32 0, i32 1
  %54 = load i64, ptr %53, align 8, !tbaa !25
  %55 = load i64, ptr %8, align 8, !tbaa !19
  %56 = add i64 %55, %54
  store i64 %56, ptr %8, align 8, !tbaa !19
  br label %57

57:                                               ; preds = %30
  %58 = load i32, ptr %6, align 4, !tbaa !17
  %59 = add nsw i32 %58, 1
  store i32 %59, ptr %6, align 4, !tbaa !17
  br label %23, !llvm.loop !28

60:                                               ; preds = %23
  %61 = load ptr, ptr %4, align 8, !tbaa !9
  %62 = getelementptr inbounds nuw %struct.chunkfile, ptr %61, i32 0, i32 0
  %63 = load ptr, ptr %62, align 8, !tbaa !11
  call void @hashwrite_be32(ptr noundef %63, i32 noundef 0)
  %64 = load ptr, ptr %4, align 8, !tbaa !9
  %65 = getelementptr inbounds nuw %struct.chunkfile, ptr %64, i32 0, i32 0
  %66 = load ptr, ptr %65, align 8, !tbaa !11
  %67 = load i64, ptr %8, align 8, !tbaa !19
  %68 = call i64 @hashwrite_be64(ptr noundef %66, i64 noundef %67)
  store i32 0, ptr %6, align 4, !tbaa !17
  br label %69

69:                                               ; preds = %140, %60
  %70 = load i32, ptr %6, align 4, !tbaa !17
  %71 = sext i32 %70 to i64
  %72 = load ptr, ptr %4, align 8, !tbaa !9
  %73 = getelementptr inbounds nuw %struct.chunkfile, ptr %72, i32 0, i32 2
  %74 = load i64, ptr %73, align 8, !tbaa !16
  %75 = icmp ult i64 %71, %74
  br i1 %75, label %76, label %143

76:                                               ; preds = %69
  call void @llvm.lifetime.start.p0(i64 8, ptr %9) #7
  %77 = load ptr, ptr %4, align 8, !tbaa !9
  %78 = getelementptr inbounds nuw %struct.chunkfile, ptr %77, i32 0, i32 0
  %79 = load ptr, ptr %78, align 8, !tbaa !11
  %80 = call i64 @hashfile_total(ptr noundef %79)
  store i64 %80, ptr %9, align 8, !tbaa !19
  %81 = load ptr, ptr %4, align 8, !tbaa !9
  %82 = getelementptr inbounds nuw %struct.chunkfile, ptr %81, i32 0, i32 1
  %83 = load ptr, ptr %82, align 8, !tbaa !15
  %84 = load i32, ptr %6, align 4, !tbaa !17
  %85 = sext i32 %84 to i64
  %86 = getelementptr inbounds %struct.chunk_info, ptr %83, i64 %85
  %87 = getelementptr inbounds nuw %struct.chunk_info, ptr %86, i32 0, i32 2
  %88 = load ptr, ptr %87, align 8, !tbaa !24
  %89 = load ptr, ptr %4, align 8, !tbaa !9
  %90 = getelementptr inbounds nuw %struct.chunkfile, ptr %89, i32 0, i32 0
  %91 = load ptr, ptr %90, align 8, !tbaa !11
  %92 = load ptr, ptr %5, align 8, !tbaa !20
  %93 = call i32 %88(ptr noundef %91, ptr noundef %92)
  store i32 %93, ptr %7, align 4, !tbaa !17
  %94 = load i32, ptr %7, align 4, !tbaa !17
  %95 = icmp ne i32 %94, 0
  br i1 %95, label %96, label %97

96:                                               ; preds = %76
  store i32 8, ptr %10, align 4
  br label %137

97:                                               ; preds = %76
  %98 = load ptr, ptr %4, align 8, !tbaa !9
  %99 = getelementptr inbounds nuw %struct.chunkfile, ptr %98, i32 0, i32 0
  %100 = load ptr, ptr %99, align 8, !tbaa !11
  %101 = call i64 @hashfile_total(ptr noundef %100)
  %102 = load i64, ptr %9, align 8, !tbaa !19
  %103 = sub nsw i64 %101, %102
  %104 = load ptr, ptr %4, align 8, !tbaa !9
  %105 = getelementptr inbounds nuw %struct.chunkfile, ptr %104, i32 0, i32 1
  %106 = load ptr, ptr %105, align 8, !tbaa !15
  %107 = load i32, ptr %6, align 4, !tbaa !17
  %108 = sext i32 %107 to i64
  %109 = getelementptr inbounds %struct.chunk_info, ptr %106, i64 %108
  %110 = getelementptr inbounds nuw %struct.chunk_info, ptr %109, i32 0, i32 1
  %111 = load i64, ptr %110, align 8, !tbaa !25
  %112 = icmp ne i64 %103, %111
  br i1 %112, label %113, label %136

113:                                              ; preds = %97
  %114 = load ptr, ptr %4, align 8, !tbaa !9
  %115 = getelementptr inbounds nuw %struct.chunkfile, ptr %114, i32 0, i32 1
  %116 = load ptr, ptr %115, align 8, !tbaa !15
  %117 = load i32, ptr %6, align 4, !tbaa !17
  %118 = sext i32 %117 to i64
  %119 = getelementptr inbounds %struct.chunk_info, ptr %116, i64 %118
  %120 = getelementptr inbounds nuw %struct.chunk_info, ptr %119, i32 0, i32 1
  %121 = load i64, ptr %120, align 8, !tbaa !25
  %122 = load ptr, ptr %4, align 8, !tbaa !9
  %123 = getelementptr inbounds nuw %struct.chunkfile, ptr %122, i32 0, i32 1
  %124 = load ptr, ptr %123, align 8, !tbaa !15
  %125 = load i32, ptr %6, align 4, !tbaa !17
  %126 = sext i32 %125 to i64
  %127 = getelementptr inbounds %struct.chunk_info, ptr %124, i64 %126
  %128 = getelementptr inbounds nuw %struct.chunk_info, ptr %127, i32 0, i32 0
  %129 = load i32, ptr %128, align 8, !tbaa !22
  %130 = load ptr, ptr %4, align 8, !tbaa !9
  %131 = getelementptr inbounds nuw %struct.chunkfile, ptr %130, i32 0, i32 0
  %132 = load ptr, ptr %131, align 8, !tbaa !11
  %133 = call i64 @hashfile_total(ptr noundef %132)
  %134 = load i64, ptr %9, align 8, !tbaa !19
  %135 = sub nsw i64 %133, %134
  call void (ptr, i32, ptr, ...) @BUG_fl(ptr noundef @.str, i32 noundef 96, ptr noundef @.str.3, i64 noundef %121, i32 noundef %129, i64 noundef %135) #8
  unreachable

136:                                              ; preds = %97
  store i32 0, ptr %10, align 4
  br label %137

137:                                              ; preds = %96, %136
  call void @llvm.lifetime.end.p0(i64 8, ptr %9) #7
  %138 = load i32, ptr %10, align 4
  switch i32 %138, label %147 [
    i32 0, label %139
    i32 8, label %144
  ]

139:                                              ; preds = %137
  br label %140

140:                                              ; preds = %139
  %141 = load i32, ptr %6, align 4, !tbaa !17
  %142 = add nsw i32 %141, 1
  store i32 %142, ptr %6, align 4, !tbaa !17
  br label %69, !llvm.loop !30

143:                                              ; preds = %69
  br label %144

144:                                              ; preds = %143, %137
  %145 = load ptr, ptr @the_repository, align 8, !tbaa !26
  call void (ptr, i32, ptr, ptr, ptr, ...) @trace2_region_leave_fl(ptr noundef @.str, i32 noundef 100, ptr noundef @.str.1, ptr noundef @.str.2, ptr noundef %145)
  %146 = load i32, ptr %7, align 4, !tbaa !17
  store i32 %146, ptr %3, align 4
  store i32 1, ptr %10, align 4
  br label %147

147:                                              ; preds = %144, %137
  call void @llvm.lifetime.end.p0(i64 8, ptr %8) #7
  call void @llvm.lifetime.end.p0(i64 4, ptr %7) #7
  call void @llvm.lifetime.end.p0(i64 4, ptr %6) #7
  %148 = load i32, ptr %3, align 4
  ret i32 %148
}