; Function Attrs: nounwind uwtable
define dso_local i32 @write_chunkfile(ptr noundef readonly captures(none) %0, ptr noundef %1) local_unnamed_addr #0 {
  %3 = alloca i64, align 8
  %4 = alloca i32, align 4
  %5 = alloca i64, align 8
  %6 = alloca i32, align 4
  %7 = load ptr, ptr %0, align 8, !tbaa !4
  %8 = getelementptr i8, ptr %7, i64 8
  %.val = load i32, ptr %8, align 8, !tbaa !20
  %9 = getelementptr i8, ptr %7, i64 2416
  %.val48 = load i64, ptr %9, align 8, !tbaa !25
  %10 = zext i32 %.val to i64
  %11 = load ptr, ptr @the_repository, align 8, !tbaa !26
  tail call void (ptr, i32, ptr, ptr, ptr, ...) @trace2_region_enter_fl(ptr noundef nonnull @.str, i32 noundef 70, ptr noundef nonnull @.str.1, ptr noundef nonnull @.str.2, ptr noundef %11) #11
  %12 = getelementptr inbounds nuw i8, ptr %0, i64 16
  %13 = load i64, ptr %12, align 8, !tbaa !13
  %14 = mul i64 %13, 12
  %15 = add nuw nsw i64 %10, 12
  %16 = add i64 %15, %.val48
  %17 = add i64 %16, %14
  %.not72 = icmp eq i64 %13, 0
  br i1 %.not72, label %._crit_edge, label %.lr.ph

.lr.ph:                                           ; preds = %2
  %18 = getelementptr inbounds nuw i8, ptr %0, i64 8
  %.pre = load ptr, ptr %18, align 8, !tbaa !12
  br label %hashwrite_be32.exit

hashwrite_be32.exit:                              ; preds = %.lr.ph, %hashwrite_be32.exit
  %19 = phi ptr [ %.pre, %.lr.ph ], [ %26, %hashwrite_be32.exit ]
  %indvars.iv = phi i64 [ 0, %.lr.ph ], [ %indvars.iv.next, %hashwrite_be32.exit ]
  %.03965 = phi i64 [ %17, %.lr.ph ], [ %29, %hashwrite_be32.exit ]
  %20 = load ptr, ptr %0, align 8, !tbaa !4
  %21 = getelementptr inbounds nuw %struct.chunk_info, ptr %19, i64 %indvars.iv
  %22 = load i32, ptr %21, align 8, !tbaa !15
  call void @llvm.lifetime.start.p0(i64 4, ptr nonnull %6)
  %23 = call i32 asm "bswap $0", "=r,0,~{dirflag},~{fpsr},~{flags}"(i32 %22) #13, !srcloc !28
  store i32 %23, ptr %6, align 4, !tbaa !29
  call void @hashwrite(ptr noundef %20, ptr noundef nonnull %6, i32 noundef 4) #11
  call void @llvm.lifetime.end.p0(i64 4, ptr nonnull %6)
  %24 = load ptr, ptr %0, align 8, !tbaa !4
  call void @llvm.lifetime.start.p0(i64 8, ptr nonnull %5)
  %25 = call i64 asm "bswap ${0:q}", "=r,0,~{dirflag},~{fpsr},~{flags}"(i64 %.03965) #13, !srcloc !30
  store i64 %25, ptr %5, align 8, !tbaa !31
  call void @hashwrite(ptr noundef %24, ptr noundef nonnull %5, i32 noundef 8) #11
  call void @llvm.lifetime.end.p0(i64 8, ptr nonnull %5)
  %26 = load ptr, ptr %18, align 8, !tbaa !12
  %27 = getelementptr inbounds nuw %struct.chunk_info, ptr %26, i64 %indvars.iv, i32 1
  %28 = load i64, ptr %27, align 8, !tbaa !19
  %29 = add i64 %28, %.03965
  %indvars.iv.next = add nuw nsw i64 %indvars.iv, 1
  %30 = load i64, ptr %12, align 8, !tbaa !13
  %31 = icmp ugt i64 %30, %indvars.iv.next
  br i1 %31, label %hashwrite_be32.exit, label %._crit_edge, !llvm.loop !32

._crit_edge:                                      ; preds = %hashwrite_be32.exit, %2
  %.039.lcssa = phi i64 [ %17, %2 ], [ %29, %hashwrite_be32.exit ]
  %32 = load ptr, ptr %0, align 8, !tbaa !4
  call void @llvm.lifetime.start.p0(i64 4, ptr nonnull %4)
  store i32 0, ptr %4, align 4, !tbaa !29
  call void @hashwrite(ptr noundef %32, ptr noundef nonnull %4, i32 noundef 4) #11
  call void @llvm.lifetime.end.p0(i64 4, ptr nonnull %4)
  %33 = load ptr, ptr %0, align 8, !tbaa !4
  call void @llvm.lifetime.start.p0(i64 8, ptr nonnull %3)
  %34 = call i64 asm "bswap ${0:q}", "=r,0,~{dirflag},~{fpsr},~{flags}"(i64 %.039.lcssa) #13, !srcloc !30
  store i64 %34, ptr %3, align 8, !tbaa !31
  call void @hashwrite(ptr noundef %33, ptr noundef nonnull %3, i32 noundef 8) #11
  call void @llvm.lifetime.end.p0(i64 8, ptr nonnull %3)
  %35 = load i64, ptr %12, align 8, !tbaa !13
  %.not73 = icmp eq i64 %35, 0
  br i1 %.not73, label %._crit_edge68, label %.lr.ph67

.lr.ph67:                                         ; preds = %._crit_edge
  %36 = getelementptr inbounds nuw i8, ptr %0, i64 8
  %.pre81 = load ptr, ptr %0, align 8, !tbaa !4
  %.phi.trans.insert = getelementptr i8, ptr %.pre81, i64 8
  %.val49.pre = load i32, ptr %.phi.trans.insert, align 8, !tbaa !20
  %.phi.trans.insert83 = getelementptr i8, ptr %.pre81, i64 2416
  %.val50.pre = load i64, ptr %.phi.trans.insert83, align 8, !tbaa !25
  %.pre85 = load ptr, ptr %36, align 8, !tbaa !12
  br label %40

37:                                               ; preds = %46
  %indvars.iv.next79 = add nuw nsw i64 %indvars.iv78, 1
  %38 = load i64, ptr %12, align 8, !tbaa !13
  %39 = icmp ugt i64 %38, %indvars.iv.next79
  br i1 %39, label %40, label %._crit_edge68, !llvm.loop !34

40:                                               ; preds = %.lr.ph67, %37
  %41 = phi ptr [ %.pre85, %.lr.ph67 ], [ %55, %37 ]
  %.val50 = phi i64 [ %.val50.pre, %.lr.ph67 ], [ %.val52, %37 ]
  %.val49 = phi i32 [ %.val49.pre, %.lr.ph67 ], [ %.val51, %37 ]
  %42 = phi ptr [ %.pre81, %.lr.ph67 ], [ %48, %37 ]
  %indvars.iv78 = phi i64 [ 0, %.lr.ph67 ], [ %indvars.iv.next79, %37 ]
  %43 = getelementptr inbounds nuw %struct.chunk_info, ptr %41, i64 %indvars.iv78, i32 2
  %44 = load ptr, ptr %43, align 8, !tbaa !18
  %45 = call i32 %44(ptr noundef nonnull %42, ptr noundef %1) #11
  %.not = icmp eq i32 %45, 0
  br i1 %.not, label %46, label %._crit_edge68

46:                                               ; preds = %40
  %47 = zext i32 %.val49 to i64
  %48 = load ptr, ptr %0, align 8, !tbaa !4
  %49 = getelementptr i8, ptr %48, i64 8
  %.val51 = load i32, ptr %49, align 8, !tbaa !20
  %50 = getelementptr i8, ptr %48, i64 2416
  %.val52 = load i64, ptr %50, align 8, !tbaa !25
  %51 = zext i32 %.val51 to i64
  %52 = add i64 %.val50, %47
  %53 = sub i64 %51, %52
  %54 = add i64 %53, %.val52
  %55 = load ptr, ptr %36, align 8, !tbaa !12
  %56 = getelementptr inbounds nuw %struct.chunk_info, ptr %55, i64 %indvars.iv78
  %57 = getelementptr inbounds nuw i8, ptr %56, i64 8
  %58 = load i64, ptr %57, align 8, !tbaa !19
  %.not46 = icmp eq i64 %54, %58
  br i1 %.not46, label %37, label %59

59:                                               ; preds = %46
  %60 = load i32, ptr %56, align 8, !tbaa !15
  call void (ptr, i32, ptr, ...) @BUG_fl(ptr noundef nonnull @.str, i32 noundef 96, ptr noundef nonnull @.str.3, i64 noundef %58, i32 noundef %60, i64 noundef %54) #12
  unreachable

._crit_edge68:                                    ; preds = %37, %40, %._crit_edge
  %.1 = phi i32 [ 0, %._crit_edge ], [ %45, %40 ], [ 0, %37 ]
  %61 = load ptr, ptr @the_repository, align 8, !tbaa !26
  call void (ptr, i32, ptr, ptr, ptr, ...) @trace2_region_leave_fl(ptr noundef nonnull @.str, i32 noundef 100, ptr noundef nonnull @.str.1, ptr noundef nonnull @.str.2, ptr noundef %61) #11
  ret i32 %.1
}